target datalayout = "e-m:e-p270:32:32-p271:32:32-p272:64:64-i64:64-i128:128-f80:128-n8:16:32:64-S128"
target triple = "x86_64-pc-linux-gnu"

%struct.AVFormatContext = type { ptr, ptr, ptr, ptr, ptr, i32, i32, ptr, i32, ptr, i32, ptr, ptr, i64, i64, i64, i32, i32, i32, i64, i64, ptr, i32, i32, ptr, i32, i32, i32, i32, ptr, i64, i32, i32, %struct.AVIOInterruptCB, i32, i32, i32, i32, i64, i32, i32, i32, i32, i32, i32, i32, i32, i32, i32, i32, i32, i64, i32, i32, i32, i32, i32, ptr, ptr, ptr, ptr, i32, ptr, ptr, ptr, ptr, i32, ptr, ptr, i64, ptr, ptr, ptr, i64 }
%struct.AVIOInterruptCB = type { ptr, ptr }
%struct.ASFContext = type { i32, i32, i32, i64, i64, i32, i64, i32, i32, i32, i64, i64, i64, i64, i64, i64, i32, [128 x ptr], [128 x %struct.ASFStreamData], i32, i32, i64, i64, i8, i32, i64, i32, i32, i64, i32, i16, i64, i32, i32 }
%struct.ASFStreamData = type { [32 x i8], ptr, %struct.AVRational }
%struct.AVRational = type { i32, i32 }
%struct.ASFStream = type { i8, i32, i32, i32, i8, i16, i16, i16, %struct.ASFPacket }
%struct.ASFPacket = type { ptr, i64, i32, i32, i32, i32, i32, i8 }
%struct.AVPacket = type { ptr, i64, i64, ptr, i32, i32, i32, ptr, i32, i64, i64, ptr, ptr, %struct.AVRational }

@.str.73 = private unnamed_addr constant [35 x i8] c"Position %ld wrong, should be %ld\0A\00", align 1

; Function Attrs: alwaysinline nounwind uwtable
define internal i64 @avio_tell(ptr noundef %0) #1 {
  %2 = alloca ptr, align 8
  store ptr %0, ptr %2, align 8, !tbaa !33
  %3 = load ptr, ptr %2, align 8, !tbaa !33
  %4 = call i64 @avio_seek(ptr noundef %3, i64 noundef 0, i32 noundef 1)
  ret i64 %4
}

; Function Attrs: nounwind uwtable
define internal i32 @asf_read_subpayload(ptr noundef %0, ptr noundef %1, i32 noundef %2) #0 {
  %4 = alloca i32, align 4
  %5 = alloca ptr, align 8
  %6 = alloca ptr, align 8
  %7 = alloca i32, align 4
  %8 = alloca ptr, align 8
  %9 = alloca ptr, align 8
  %10 = alloca i8, align 1
  %11 = alloca i32, align 4
  %12 = alloca i32, align 4
  %13 = alloca i32, align 4
  store ptr %0, ptr %5, align 8, !tbaa !13
  store ptr %1, ptr %6, align 8, !tbaa !79
  store i32 %2, ptr %7, align 4, !tbaa !42
  call void @llvm.lifetime.start.p0(i64 8, ptr %8) #10
  %14 = load ptr, ptr %5, align 8, !tbaa !13
  %15 = getelementptr inbounds nuw %struct.AVFormatContext, ptr %14, i32 0, i32 3
  %16 = load ptr, ptr %15, align 8, !tbaa !15
  store ptr %16, ptr %8, align 8, !tbaa !30
  call void @llvm.lifetime.start.p0(i64 8, ptr %9) #10
  %17 = load ptr, ptr %5, align 8, !tbaa !13
  %18 = getelementptr inbounds nuw %struct.AVFormatContext, ptr %17, i32 0, i32 4
  %19 = load ptr, ptr %18, align 8, !tbaa !32
  store ptr %19, ptr %9, align 8, !tbaa !33
  call void @llvm.lifetime.start.p0(i64 1, ptr %10) #10
  call void @llvm.lifetime.start.p0(i64 4, ptr %11) #10
  call void @llvm.lifetime.start.p0(i64 4, ptr %12) #10
  %20 = load i32, ptr %7, align 4, !tbaa !42
  %21 = icmp ne i32 %20, 0
  br i1 %21, label %22, label %47

22:                                               ; preds = %3
  %23 = load ptr, ptr %9, align 8, !tbaa !33
  %24 = call i32 @avio_r8(ptr noundef %23)
  %25 = trunc i32 %24 to i8
  %26 = load ptr, ptr %8, align 8, !tbaa !30
  %27 = getelementptr inbounds nuw %struct.ASFContext, ptr %26, i32 0, i32 23
  store i8 %25, ptr %27, align 8, !tbaa !198
  %28 = load ptr, ptr %8, align 8, !tbaa !30
  %29 = getelementptr inbounds nuw %struct.ASFContext, ptr %28, i32 0, i32 31
  %30 = load i64, ptr %29, align 8, !tbaa !84
  %31 = icmp ne i64 %30, 0
  br i1 %31, label %32, label %38

32:                                               ; preds = %22
  %33 = load ptr, ptr %9, align 8, !tbaa !33
  %34 = call i32 @avio_rl16(ptr noundef %33)
  %35 = trunc i32 %34 to i16
  %36 = load ptr, ptr %8, align 8, !tbaa !30
  %37 = getelementptr inbounds nuw %struct.ASFContext, ptr %36, i32 0, i32 30
  store i16 %35, ptr %37, align 4, !tbaa !199
  br label %38

38:                                               ; preds = %32, %22
  %39 = load ptr, ptr %9, align 8, !tbaa !33
  %40 = call i64 @avio_tell(ptr noundef %39)
  %41 = load ptr, ptr %8, align 8, !tbaa !30
  %42 = getelementptr inbounds nuw %struct.ASFContext, ptr %41, i32 0, i32 21
  store i64 %40, ptr %42, align 8, !tbaa !200
  %43 = load ptr, ptr %8, align 8, !tbaa !30
  %44 = getelementptr inbounds nuw %struct.ASFContext, ptr %43, i32 0, i32 29
  store i32 0, ptr %44, align 8, !tbaa !201
  %45 = load ptr, ptr %8, align 8, !tbaa !30
  %46 = getelementptr inbounds nuw %struct.ASFContext, ptr %45, i32 0, i32 28
  store i64 1, ptr %46, align 8, !tbaa !86
  br label %47

47:                                               ; preds = %38, %3
  %48 = load ptr, ptr %9, align 8, !tbaa !33
  %49 = call i32 @avio_r8(ptr noundef %48)
  %50 = trunc i32 %49 to i8
  store i8 %50, ptr %10, align 1, !tbaa !131
  %51 = load ptr, ptr %9, align 8, !tbaa !33
  %52 = load ptr, ptr %6, align 8, !tbaa !79
  %53 = load i8, ptr %10, align 1, !tbaa !131
  %54 = zext i8 %53 to i32
  %55 = call i32 @av_get_packet(ptr noundef %51, ptr noundef %52, i32 noundef %54)
  store i32 %55, ptr %11, align 4, !tbaa !42
  %56 = icmp slt i32 %55, 0
  br i1 %56, label %57, label %59

57:                                               ; preds = %47
  %58 = load i32, ptr %11, align 4, !tbaa !42
  store i32 %58, ptr %4, align 4
  store i32 1, ptr %13, align 4
  br label %228

59:                                               ; preds = %47
  store i32 0, ptr %12, align 4, !tbaa !42
  br label %60

60:                                               ; preds = %92, %59
  %61 = load i32, ptr %12, align 4, !tbaa !42
  %62 = load ptr, ptr %8, align 8, !tbaa !30
  %63 = getelementptr inbounds nuw %struct.ASFContext, ptr %62, i32 0, i32 19
  %64 = load i32, ptr %63, align 8, !tbaa !52
  %65 = icmp slt i32 %61, %64
  br i1 %65, label %66, label %95

66:                                               ; preds = %60
  %67 = load ptr, ptr %8, align 8, !tbaa !30
  %68 = getelementptr inbounds nuw %struct.ASFContext, ptr %67, i32 0, i32 20
  %69 = load i32, ptr %68, align 4, !tbaa !185
  %70 = load ptr, ptr %8, align 8, !tbaa !30
  %71 = getelementptr inbounds nuw %struct.ASFContext, ptr %70, i32 0, i32 17
  %72 = load i32, ptr %12, align 4, !tbaa !42
  %73 = sext i32 %72 to i64
  %74 = getelementptr inbounds [128 x ptr], ptr %71, i64 0, i64 %73
  %75 = load ptr, ptr %74, align 8, !tbaa !53
  %76 = getelementptr inbounds nuw %struct.ASFStream, ptr %75, i32 0, i32 0
  %77 = load i8, ptr %76, align 8, !tbaa !133
  %78 = zext i8 %77 to i32
  %79 = icmp eq i32 %69, %78
  br i1 %79, label %80, label %91

80:                                               ; preds = %66
  %81 = load ptr, ptr %8, align 8, !tbaa !30
  %82 = getelementptr inbounds nuw %struct.ASFContext, ptr %81, i32 0, i32 17
  %83 = load i32, ptr %12, align 4, !tbaa !42
  %84 = sext i32 %83 to i64
  %85 = getelementptr inbounds [128 x ptr], ptr %82, i64 0, i64 %84
  %86 = load ptr, ptr %85, align 8, !tbaa !53
  %87 = getelementptr inbounds nuw %struct.ASFStream, ptr %86, i32 0, i32 1
  %88 = load i32, ptr %87, align 4, !tbaa !61
  %89 = load ptr, ptr %6, align 8, !tbaa !79
  %90 = getelementptr inbounds nuw %struct.AVPacket, ptr %89, i32 0, i32 5
  store i32 %88, ptr %90, align 4, !tbaa !98
  br label %95

91:                                               ; preds = %66
  br label %92

92:                                               ; preds = %91
  %93 = load i32, ptr %12, align 4, !tbaa !42
  %94 = add nsw i32 %93, 1
  store i32 %94, ptr %12, align 4, !tbaa !42
  br label %60, !llvm.loop !202

95:                                               ; preds = %80, %60
  %96 = load ptr, ptr %8, align 8, !tbaa !30
  %97 = getelementptr inbounds nuw %struct.ASFContext, ptr %96, i32 0, i32 32
  store i32 1, ptr %97, align 8, !tbaa !87
  %98 = load i8, ptr %10, align 1, !tbaa !131
  %99 = icmp ne i8 %98, 0
  br i1 %99, label %103, label %100

100:                                              ; preds = %95
  %101 = load ptr, ptr %8, align 8, !tbaa !30
  %102 = getelementptr inbounds nuw %struct.ASFContext, ptr %101, i32 0, i32 32
  store i32 0, ptr %102, align 8, !tbaa !87
  br label %103

103:                                              ; preds = %100, %95
  %104 = load i8, ptr %10, align 1, !tbaa !131
  %105 = icmp ne i8 %104, 0
  br i1 %105, label %106, label %111

106:                                              ; preds = %103
  %107 = load ptr, ptr %8, align 8, !tbaa !30
  %108 = getelementptr inbounds nuw %struct.ASFContext, ptr %107, i32 0, i32 29
  %109 = load i32, ptr %108, align 8, !tbaa !201
  %110 = add i32 %109, 1
  store i32 %110, ptr %108, align 8, !tbaa !201
  br label %111

111:                                              ; preds = %106, %103
  %112 = load ptr, ptr %8, align 8, !tbaa !30
  %113 = getelementptr inbounds nuw %struct.ASFContext, ptr %112, i32 0, i32 22
  %114 = load i64, ptr %113, align 8, !tbaa !189
  %115 = load ptr, ptr %8, align 8, !tbaa !30
  %116 = getelementptr inbounds nuw %struct.ASFContext, ptr %115, i32 0, i32 29
  %117 = load i32, ptr %116, align 8, !tbaa !201
  %118 = sub i32 %117, 1
  %119 = load ptr, ptr %8, align 8, !tbaa !30
  %120 = getelementptr inbounds nuw %struct.ASFContext, ptr %119, i32 0, i32 23
  %121 = load i8, ptr %120, align 8, !tbaa !198
  %122 = zext i8 %121 to i32
  %123 = mul i32 %118, %122
  %124 = zext i32 %123 to i64
  %125 = add nsw i64 %114, %124
  %126 = load ptr, ptr %8, align 8, !tbaa !30
  %127 = getelementptr inbounds nuw %struct.ASFContext, ptr %126, i32 0, i32 3
  %128 = load i64, ptr %127, align 8, !tbaa !36
  %129 = sub i64 %125, %128
  %130 = load ptr, ptr %6, align 8, !tbaa !79
  %131 = getelementptr inbounds nuw %struct.AVPacket, ptr %130, i32 0, i32 2
  store i64 %129, ptr %131, align 8, !tbaa !102
  %132 = load ptr, ptr %8, align 8, !tbaa !30
  %133 = getelementptr inbounds nuw %struct.ASFContext, ptr %132, i32 0, i32 31
  %134 = load i64, ptr %133, align 8, !tbaa !84
  %135 = icmp ne i64 %134, 0
  br i1 %135, label %136, label %155

136:                                              ; preds = %111
  %137 = load ptr, ptr %9, align 8, !tbaa !33
  %138 = call i64 @avio_tell(ptr noundef %137)
  %139 = load ptr, ptr %8, align 8, !tbaa !30
  %140 = getelementptr inbounds nuw %struct.ASFContext, ptr %139, i32 0, i32 21
  %141 = load i64, ptr %140, align 8, !tbaa !200
  %142 = load ptr, ptr %8, align 8, !tbaa !30
  %143 = getelementptr inbounds nuw %struct.ASFContext, ptr %142, i32 0, i32 30
  %144 = load i16, ptr %143, align 4, !tbaa !199
  %145 = zext i16 %144 to i64
  %146 = add i64 %141, %145
  %147 = icmp uge i64 %138, %146
  br i1 %147, label %148, label %155

148:                                              ; preds = %136
  %149 = load ptr, ptr %8, align 8, !tbaa !30
  %150 = getelementptr inbounds nuw %struct.ASFContext, ptr %149, i32 0, i32 28
  store i64 0, ptr %150, align 8, !tbaa !86
  %151 = load ptr, ptr %8, align 8, !tbaa !30
  %152 = getelementptr inbounds nuw %struct.ASFContext, ptr %151, i32 0, i32 31
  %153 = load i64, ptr %152, align 8, !tbaa !84
  %154 = add i64 %153, -1
  store i64 %154, ptr %152, align 8, !tbaa !84
  br label %155

155:                                              ; preds = %148, %136, %111
  %156 = load ptr, ptr %9, align 8, !tbaa !33
  %157 = call i64 @avio_tell(ptr noundef %156)
  %158 = load ptr, ptr %8, align 8, !tbaa !30
  %159 = getelementptr inbounds nuw %struct.ASFContext, ptr %158, i32 0, i32 25
  %160 = load i64, ptr %159, align 8, !tbaa !88
  %161 = load ptr, ptr %8, align 8, !tbaa !30
  %162 = getelementptr inbounds nuw %struct.ASFContext, ptr %161, i32 0, i32 5
  %163 = load i32, ptr %162, align 8, !tbaa !89
  %164 = zext i32 %163 to i64
  %165 = add nsw i64 %160, %164
  %166 = load ptr, ptr %8, align 8, !tbaa !30
  %167 = getelementptr inbounds nuw %struct.ASFContext, ptr %166, i32 0, i32 26
  %168 = load i32, ptr %167, align 8, !tbaa !90
  %169 = zext i32 %168 to i64
  %170 = sub nsw i64 %165, %169
  %171 = icmp sge i64 %157, %170
  br i1 %171, label %172, label %227

172:                                              ; preds = %155
  %173 = load ptr, ptr %8, align 8, !tbaa !30
  %174 = getelementptr inbounds nuw %struct.ASFContext, ptr %173, i32 0, i32 28
  store i64 0, ptr %174, align 8, !tbaa !86
  %175 = load ptr, ptr %8, align 8, !tbaa !30
  %176 = getelementptr inbounds nuw %struct.ASFContext, ptr %175, i32 0, i32 31
  %177 = load i64, ptr %176, align 8, !tbaa !84
  %178 = icmp ne i64 %177, 0
  br i1 %178, label %226, label %179

179:                                              ; preds = %172
  %180 = load ptr, ptr %9, align 8, !tbaa !33
  %181 = load ptr, ptr %8, align 8, !tbaa !30
  %182 = getelementptr inbounds nuw %struct.ASFContext, ptr %181, i32 0, i32 26
  %183 = load i32, ptr %182, align 8, !tbaa !90
  %184 = zext i32 %183 to i64
  %185 = call i64 @avio_skip(ptr noundef %180, i64 noundef %184)
  %186 = load ptr, ptr %9, align 8, !tbaa !33
  %187 = call i64 @avio_tell(ptr noundef %186)
  %188 = load ptr, ptr %8, align 8, !tbaa !30
  %189 = getelementptr inbounds nuw %struct.ASFContext, ptr %188, i32 0, i32 25
  %190 = load i64, ptr %189, align 8, !tbaa !88
  %191 = load ptr, ptr %8, align 8, !tbaa !30
  %192 = getelementptr inbounds nuw %struct.ASFContext, ptr %191, i32 0, i32 5
  %193 = load i32, ptr %192, align 8, !tbaa !89
  %194 = zext i32 %193 to i64
  %195 = add nsw i64 %190, %194
  %196 = icmp ne i64 %187, %195
  br i1 %196, label %197, label %225

197:                                              ; preds = %179
  %198 = load ptr, ptr %8, align 8, !tbaa !30
  %199 = getelementptr inbounds nuw %struct.ASFContext, ptr %198, i32 0, i32 5
  %200 = load i32, ptr %199, align 8, !tbaa !89
  %201 = icmp ne i32 %200, 0
  br i1 %201, label %203, label %202

202:                                              ; preds = %197
  store i32 -1094995529, ptr %4, align 4
  store i32 1, ptr %13, align 4
  br label %228

203:                                              ; preds = %197
  %204 = load ptr, ptr %5, align 8, !tbaa !13
  %205 = load ptr, ptr %9, align 8, !tbaa !33
  %206 = call i64 @avio_tell(ptr noundef %205)
  %207 = load ptr, ptr %8, align 8, !tbaa !30
  %208 = getelementptr inbounds nuw %struct.ASFContext, ptr %207, i32 0, i32 25
  %209 = load i64, ptr %208, align 8, !tbaa !88
  %210 = load ptr, ptr %8, align 8, !tbaa !30
  %211 = getelementptr inbounds nuw %struct.ASFContext, ptr %210, i32 0, i32 5
  %212 = load i32, ptr %211, align 8, !tbaa !89
  %213 = zext i32 %212 to i64
  %214 = add nsw i64 %209, %213
  call void (ptr, i32, ptr, ...) @av_log(ptr noundef %204, i32 noundef 24, ptr noundef @.str.73, i64 noundef %206, i64 noundef %214)
  %215 = load ptr, ptr %9, align 8, !tbaa !33
  %216 = load ptr, ptr %8, align 8, !tbaa !30
  %217 = getelementptr inbounds nuw %struct.ASFContext, ptr %216, i32 0, i32 25
  %218 = load i64, ptr %217, align 8, !tbaa !88
  %219 = load ptr, ptr %8, align 8, !tbaa !30
  %220 = getelementptr inbounds nuw %struct.ASFContext, ptr %219, i32 0, i32 5
  %221 = load i32, ptr %220, align 8, !tbaa !89
  %222 = zext i32 %221 to i64
  %223 = add nsw i64 %218, %222
  %224 = call i64 @avio_seek(ptr noundef %215, i64 noundef %223, i32 noundef 0)
  br label %225

225:                                              ; preds = %203, %179
  br label %226

226:                                              ; preds = %225, %172
  br label %227

227:                                              ; preds = %226, %155
  store i32 0, ptr %4, align 4
  store i32 1, ptr %13, align 4
  br label %228

228:                                              ; preds = %227, %202, %57
  call void @llvm.lifetime.end.p0(i64 4, ptr %12) #10
  call void @llvm.lifetime.end.p0(i64 4, ptr %11) #10
  call void @llvm.lifetime.end.p0(i64 1, ptr %10) #10
  call void @llvm.lifetime.end.p0(i64 8, ptr %9) #10
  call void @llvm.lifetime.end.p0(i64 8, ptr %8) #10
  %229 = load i32, ptr %4, align 4
  ret i32 %229
}