; Function Attrs: nounwind uwtable
define internal fastcc range(i32 -2147483648, 1) i32 @asf_read_subpayload(ptr noundef %0, ptr noundef %1, i32 noundef range(i32 0, 2) %2) unnamed_addr #1 {
  %4 = getelementptr inbounds nuw i8, ptr %0, i64 24
  %5 = load ptr, ptr %4, align 8, !tbaa !11
  %6 = getelementptr inbounds nuw i8, ptr %0, i64 32
  %7 = load ptr, ptr %6, align 8, !tbaa !26
  %.not = icmp eq i32 %2, 0
  br i1 %.not, label %23, label %8

8:                                                ; preds = %3
  %9 = tail call i32 @avio_r8(ptr noundef %7) #12
  %10 = trunc i32 %9 to i8
  %11 = getelementptr inbounds nuw i8, ptr %5, i64 7312
  store i8 %10, ptr %11, align 8, !tbaa !129
  %12 = getelementptr inbounds nuw i8, ptr %5, i64 7352
  %13 = load i64, ptr %12, align 8, !tbaa !83
  %.not63 = icmp eq i64 %13, 0
  br i1 %.not63, label %18, label %14

14:                                               ; preds = %8
  %15 = tail call i32 @avio_rl16(ptr noundef %7) #12
  %16 = trunc i32 %15 to i16
  %17 = getelementptr inbounds nuw i8, ptr %5, i64 7348
  store i16 %16, ptr %17, align 4, !tbaa !130
  br label %18

18:                                               ; preds = %14, %8
  %19 = tail call i64 @avio_seek(ptr noundef %7, i64 noundef 0, i32 noundef 1) #12
  %20 = getelementptr inbounds nuw i8, ptr %5, i64 7296
  store i64 %19, ptr %20, align 8, !tbaa !128
  %21 = getelementptr inbounds nuw i8, ptr %5, i64 7344
  store i32 0, ptr %21, align 8, !tbaa !131
  %22 = getelementptr inbounds nuw i8, ptr %5, i64 7336
  store i64 1, ptr %22, align 8, !tbaa !84
  br label %23

23:                                               ; preds = %18, %3
  %24 = tail call i32 @avio_r8(ptr noundef %7) #12
  %25 = and i32 %24, 255
  %26 = tail call i32 @av_get_packet(ptr noundef %7, ptr noundef %1, i32 noundef %25) #12
  %27 = icmp slt i32 %26, 0
  br i1 %27, label %113, label %.preheader

.preheader:                                       ; preds = %23
  %28 = getelementptr inbounds nuw i8, ptr %5, i64 7288
  %29 = load i32, ptr %28, align 8, !tbaa !44
  %30 = icmp sgt i32 %29, 0
  br i1 %30, label %.lr.ph, label %.loopexit

.lr.ph:                                           ; preds = %.preheader
  %31 = getelementptr inbounds nuw i8, ptr %5, i64 7292
  %32 = load i32, ptr %31, align 4, !tbaa !85
  %33 = getelementptr inbounds nuw i8, ptr %5, i64 120
  %wide.trip.count = zext nneg i32 %29 to i64
  br label %35

34:                                               ; preds = %35
  %indvars.iv.next = add nuw nsw i64 %indvars.iv, 1
  %exitcond.not = icmp eq i64 %indvars.iv.next, %wide.trip.count
  br i1 %exitcond.not, label %.loopexit, label %35, !llvm.loop !180

35:                                               ; preds = %.lr.ph, %34
  %indvars.iv = phi i64 [ 0, %.lr.ph ], [ %indvars.iv.next, %34 ]
  %36 = getelementptr inbounds nuw [128 x ptr], ptr %33, i64 0, i64 %indvars.iv
  %37 = load ptr, ptr %36, align 8, !tbaa !45
  %38 = load i8, ptr %37, align 8, !tbaa !57
  %39 = zext i8 %38 to i32
  %40 = icmp eq i32 %32, %39
  br i1 %40, label %41, label %34

41:                                               ; preds = %35
  %42 = getelementptr inbounds nuw i8, ptr %37, i64 4
  %43 = load i32, ptr %42, align 4, !tbaa !52
  %44 = getelementptr inbounds nuw i8, ptr %1, i64 36
  store i32 %43, ptr %44, align 4, !tbaa !103
  br label %.loopexit

.loopexit:                                        ; preds = %34, %.preheader, %41
  %45 = getelementptr inbounds nuw i8, ptr %5, i64 7360
  %.not64 = icmp ne i32 %25, 0
  %spec.select = zext i1 %.not64 to i32
  store i32 %spec.select, ptr %45, align 8, !tbaa !104
  %46 = getelementptr inbounds nuw i8, ptr %5, i64 7344
  %47 = load i32, ptr %46, align 8, !tbaa !131
  br i1 %.not64, label %49, label %.loopexit._crit_edge

.loopexit._crit_edge:                             ; preds = %.loopexit
  %48 = add i32 %47, -1
  br label %51

49:                                               ; preds = %.loopexit
  %50 = add i32 %47, 1
  store i32 %50, ptr %46, align 8, !tbaa !131
  br label %51

51:                                               ; preds = %.loopexit._crit_edge, %49
  %52 = phi i32 [ %48, %.loopexit._crit_edge ], [ %47, %49 ]
  %53 = getelementptr inbounds nuw i8, ptr %5, i64 7304
  %54 = load i64, ptr %53, align 8, !tbaa !95
  %55 = getelementptr inbounds nuw i8, ptr %5, i64 7312
  %56 = load i8, ptr %55, align 8, !tbaa !129
  %57 = zext i8 %56 to i32
  %58 = mul i32 %52, %57
  %59 = zext i32 %58 to i64
  %60 = getelementptr inbounds nuw i8, ptr %5, i64 16
  %61 = load i64, ptr %60, align 8, !tbaa !27
  %62 = sub i64 %54, %61
  %63 = add i64 %62, %59
  %64 = getelementptr inbounds nuw i8, ptr %1, i64 16
  store i64 %63, ptr %64, align 8, !tbaa !102
  %65 = getelementptr inbounds nuw i8, ptr %5, i64 7352
  %66 = load i64, ptr %65, align 8, !tbaa !83
  %.not65 = icmp eq i64 %66, 0
  br i1 %.not65, label %79, label %67

67:                                               ; preds = %51
  %68 = tail call i64 @avio_seek(ptr noundef %7, i64 noundef 0, i32 noundef 1) #12
  %69 = getelementptr inbounds nuw i8, ptr %5, i64 7296
  %70 = load i64, ptr %69, align 8, !tbaa !128
  %71 = getelementptr inbounds nuw i8, ptr %5, i64 7348
  %72 = load i16, ptr %71, align 4, !tbaa !130
  %73 = zext i16 %72 to i64
  %74 = add i64 %70, %73
  %.not66 = icmp ult i64 %68, %74
  br i1 %.not66, label %79, label %75

75:                                               ; preds = %67
  %76 = getelementptr inbounds nuw i8, ptr %5, i64 7336
  store i64 0, ptr %76, align 8, !tbaa !84
  %77 = load i64, ptr %65, align 8, !tbaa !83
  %78 = add i64 %77, -1
  store i64 %78, ptr %65, align 8, !tbaa !83
  br label %79

79:                                               ; preds = %75, %67, %51
  %80 = tail call i64 @avio_seek(ptr noundef %7, i64 noundef 0, i32 noundef 1) #12
  %81 = getelementptr inbounds nuw i8, ptr %5, i64 7320
  %82 = load i64, ptr %81, align 8, !tbaa !78
  %83 = getelementptr inbounds nuw i8, ptr %5, i64 32
  %84 = load i32, ptr %83, align 8, !tbaa !87
  %85 = zext i32 %84 to i64
  %86 = add nsw i64 %82, %85
  %87 = getelementptr inbounds nuw i8, ptr %5, i64 7328
  %88 = load i32, ptr %87, align 8, !tbaa !81
  %89 = zext i32 %88 to i64
  %90 = sub i64 %86, %89
  %.not67 = icmp slt i64 %80, %90
  br i1 %.not67, label %113, label %91

91:                                               ; preds = %79
  %92 = getelementptr inbounds nuw i8, ptr %5, i64 7336
  store i64 0, ptr %92, align 8, !tbaa !84
  %93 = load i64, ptr %65, align 8, !tbaa !83
  %.not68 = icmp eq i64 %93, 0
  br i1 %.not68, label %94, label %113

94:                                               ; preds = %91
  %95 = tail call i64 @avio_skip(ptr noundef %7, i64 noundef %89) #12
  %96 = tail call i64 @avio_seek(ptr noundef %7, i64 noundef 0, i32 noundef 1) #12
  %97 = load i64, ptr %81, align 8, !tbaa !78
  %98 = load i32, ptr %83, align 8, !tbaa !87
  %99 = zext i32 %98 to i64
  %100 = add nsw i64 %97, %99
  %.not69 = icmp eq i64 %96, %100
  br i1 %.not69, label %113, label %101

101:                                              ; preds = %94
  %.not70 = icmp eq i32 %98, 0
  br i1 %.not70, label %113, label %102

102:                                              ; preds = %101
  %103 = tail call i64 @avio_seek(ptr noundef %7, i64 noundef 0, i32 noundef 1) #12
  %104 = load i64, ptr %81, align 8, !tbaa !78
  %105 = load i32, ptr %83, align 8, !tbaa !87
  %106 = zext i32 %105 to i64
  %107 = add nsw i64 %104, %106
  tail call void (ptr, i32, ptr, ...) @av_log(ptr noundef %0, i32 noundef 24, ptr noundef nonnull @.str.73, i64 noundef %103, i64 noundef %107) #12
  %108 = load i64, ptr %81, align 8, !tbaa !78
  %109 = load i32, ptr %83, align 8, !tbaa !87
  %110 = zext i32 %109 to i64
  %111 = add nsw i64 %108, %110
  %112 = tail call i64 @avio_seek(ptr noundef %7, i64 noundef %111, i32 noundef 0) #12
  br label %113

113:                                              ; preds = %79, %94, %102, %91, %101, %23
  %.061 = phi i32 [ %26, %23 ], [ -1094995529, %101 ], [ 0, %91 ], [ 0, %102 ], [ 0, %94 ], [ 0, %79 ]
  ret i32 %.061
}